target datalayout = "e-m:e-p270:32:32-p271:32:32-p272:64:64-i64:64-i128:128-f80:128-n8:16:32:64-S128"
target triple = "x86_64-pc-linux-gnu"

%"class.ade::Handle" = type { %"class.std::weak_ptr" }
%"class.std::weak_ptr" = type { %"class.std::__weak_ptr" }
%"class.std::__weak_ptr" = type { ptr, %"class.std::__weak_count" }
%"class.std::__weak_count" = type { ptr }
%class.anon.310 = type { ptr }
%"class.__gnu_cxx::__normal_iterator" = type { ptr }
%"struct.__gnu_cxx::__ops::_Iter_pred.472" = type { %class.anon.310 }

; Function Attrs: mustprogress nounwind uwtable
define linkonce_odr hidden noundef nonnull align 8 dereferenceable(8) ptr @_ZNK9__gnu_cxx17__normal_iteratorIPKN3ade6HandleINS1_4NodeEEESt6vectorIS4_SaIS4_EEE4baseEv(ptr noundef nonnull align 8 dereferenceable(8) %0) #5 comdat align 2 {
  %2 = alloca ptr, align 8
  store ptr %0, ptr %2, align 8
  %3 = load ptr, ptr %2, align 8
  %4 = getelementptr inbounds %"class.__gnu_cxx::__normal_iterator", ptr %3, i32 0, i32 0
  ret ptr %4
}

; Function Attrs: mustprogress nounwind uwtable
define linkonce_odr hidden noundef nonnull align 8 dereferenceable(8) ptr @_ZN9__gnu_cxx17__normal_iteratorIPKN3ade6HandleINS1_4NodeEEESt6vectorIS4_SaIS4_EEEppEv(ptr noundef nonnull align 8 dereferenceable(8) %0) #5 comdat align 2 {
  %2 = alloca ptr, align 8
  store ptr %0, ptr %2, align 8
  %3 = load ptr, ptr %2, align 8
  %4 = getelementptr inbounds %"class.__gnu_cxx::__normal_iterator", ptr %3, i32 0, i32 0
  %5 = load ptr, ptr %4, align 8
  %6 = getelementptr inbounds %"class.ade::Handle", ptr %5, i32 1
  store ptr %6, ptr %4, align 8
  ret ptr %3
}

; Function Attrs: mustprogress nounwind uwtable
define linkonce_odr hidden noundef i64 @_ZN9__gnu_cxxmiIPKN3ade6HandleINS1_4NodeEEESt6vectorIS4_SaIS4_EEEENS_17__normal_iteratorIT_T0_E15difference_typeERKSD_SG_(ptr noundef nonnull align 8 dereferenceable(8) %0, ptr noundef nonnull align 8 dereferenceable(8) %1) #5 comdat {
  %3 = alloca ptr, align 8
  %4 = alloca ptr, align 8
  store ptr %0, ptr %3, align 8
  store ptr %1, ptr %4, align 8
  %5 = load ptr, ptr %3, align 8
  %6 = call noundef nonnull align 8 dereferenceable(8) ptr @_ZNK9__gnu_cxx17__normal_iteratorIPKN3ade6HandleINS1_4NodeEEESt6vectorIS4_SaIS4_EEE4baseEv(ptr noundef nonnull align 8 dereferenceable(8) %5) #3
  %7 = load ptr, ptr %6, align 8
  %8 = load ptr, ptr %4, align 8
  %9 = call noundef nonnull align 8 dereferenceable(8) ptr @_ZNK9__gnu_cxx17__normal_iteratorIPKN3ade6HandleINS1_4NodeEEESt6vectorIS4_SaIS4_EEE4baseEv(ptr noundef nonnull align 8 dereferenceable(8) %8) #3
  %10 = load ptr, ptr %9, align 8
  %11 = ptrtoint ptr %7 to i64
  %12 = ptrtoint ptr %10 to i64
  %13 = sub i64 %11, %12
  %14 = sdiv exact i64 %13, 16
  ret i64 %14
}

; Function Attrs: mustprogress uwtable
define internal ptr @"_ZSt9__find_ifIN9__gnu_cxx17__normal_iteratorIPKN3ade6HandleINS2_4NodeEEESt6vectorIS5_SaIS5_EEEENS0_5__ops10_Iter_predIZN12_GLOBAL__N_117GPythonExecutableC1ERKNS2_5GraphERKSA_E3$_0EEET_SN_SN_T0_St26random_access_iterator_tag"(ptr %0, ptr %1, ptr %2) #4 {
  %4 = alloca %"class.__gnu_cxx::__normal_iterator", align 8
  %5 = alloca %"class.__gnu_cxx::__normal_iterator", align 8
  %6 = alloca %"class.__gnu_cxx::__normal_iterator", align 8
  %7 = alloca %"struct.__gnu_cxx::__ops::_Iter_pred.472", align 8
  %8 = alloca i64, align 8
  %9 = alloca %"class.__gnu_cxx::__normal_iterator", align 8
  %10 = alloca %"class.__gnu_cxx::__normal_iterator", align 8
  %11 = alloca %"class.__gnu_cxx::__normal_iterator", align 8
  %12 = alloca %"class.__gnu_cxx::__normal_iterator", align 8
  %13 = alloca %"class.__gnu_cxx::__normal_iterator", align 8
  %14 = alloca %"class.__gnu_cxx::__normal_iterator", align 8
  %15 = alloca %"class.__gnu_cxx::__normal_iterator", align 8
  %16 = getelementptr inbounds %"class.__gnu_cxx::__normal_iterator", ptr %5, i32 0, i32 0
  store ptr %0, ptr %16, align 8
  %17 = getelementptr inbounds %"class.__gnu_cxx::__normal_iterator", ptr %6, i32 0, i32 0
  store ptr %1, ptr %17, align 8
  %18 = getelementptr inbounds %"struct.__gnu_cxx::__ops::_Iter_pred.472", ptr %7, i32 0, i32 0
  %19 = getelementptr inbounds %class.anon.310, ptr %18, i32 0, i32 0
  store ptr %2, ptr %19, align 8
  %20 = call noundef i64 @_ZN9__gnu_cxxmiIPKN3ade6HandleINS1_4NodeEEESt6vectorIS4_SaIS4_EEEENS_17__normal_iteratorIT_T0_E15difference_typeERKSD_SG_(ptr noundef nonnull align 8 dereferenceable(8) %6, ptr noundef nonnull align 8 dereferenceable(8) %5) #3
  %21 = ashr i64 %20, 2
  store i64 %21, ptr %8, align 8
  br label %22

22:                                               ; preds = %50, %3
  %23 = load i64, ptr %8, align 8
  %24 = icmp sgt i64 %23, 0
  br i1 %24, label %25, label %53

25:                                               ; preds = %22
  call void @llvm.memcpy.p0.p0.i64(ptr align 8 %9, ptr align 8 %5, i64 8, i1 false)
  %26 = getelementptr inbounds %"class.__gnu_cxx::__normal_iterator", ptr %9, i32 0, i32 0
  %27 = load ptr, ptr %26, align 8
  %28 = call noundef zeroext i1 @"_ZN9__gnu_cxx5__ops10_Iter_predIZN12_GLOBAL__N_117GPythonExecutableC1ERKN3ade5GraphERKSt6vectorINS4_6HandleINS4_4NodeEEESaISB_EEE3$_0EclINS_17__normal_iteratorIPKSB_SD_EEEEbT_"(ptr noundef nonnull align 8 dereferenceable(8) %7, ptr %27)
  br i1 %28, label %29, label %30

29:                                               ; preds = %25
  call void @llvm.memcpy.p0.p0.i64(ptr align 8 %4, ptr align 8 %5, i64 8, i1 false)
  br label %78

30:                                               ; preds = %25
  %31 = call noundef nonnull align 8 dereferenceable(8) ptr @_ZN9__gnu_cxx17__normal_iteratorIPKN3ade6HandleINS1_4NodeEEESt6vectorIS4_SaIS4_EEEppEv(ptr noundef nonnull align 8 dereferenceable(8) %5) #3
  call void @llvm.memcpy.p0.p0.i64(ptr align 8 %10, ptr align 8 %5, i64 8, i1 false)
  %32 = getelementptr inbounds %"class.__gnu_cxx::__normal_iterator", ptr %10, i32 0, i32 0
  %33 = load ptr, ptr %32, align 8
  %34 = call noundef zeroext i1 @"_ZN9__gnu_cxx5__ops10_Iter_predIZN12_GLOBAL__N_117GPythonExecutableC1ERKN3ade5GraphERKSt6vectorINS4_6HandleINS4_4NodeEEESaISB_EEE3$_0EclINS_17__normal_iteratorIPKSB_SD_EEEEbT_"(ptr noundef nonnull align 8 dereferenceable(8) %7, ptr %33)
  br i1 %34, label %35, label %36

35:                                               ; preds = %30
  call void @llvm.memcpy.p0.p0.i64(ptr align 8 %4, ptr align 8 %5, i64 8, i1 false)
  br label %78

36:                                               ; preds = %30
  %37 = call noundef nonnull align 8 dereferenceable(8) ptr @_ZN9__gnu_cxx17__normal_iteratorIPKN3ade6HandleINS1_4NodeEEESt6vectorIS4_SaIS4_EEEppEv(ptr noundef nonnull align 8 dereferenceable(8) %5) #3
  call void @llvm.memcpy.p0.p0.i64(ptr align 8 %11, ptr align 8 %5, i64 8, i1 false)
  %38 = getelementptr inbounds %"class.__gnu_cxx::__normal_iterator", ptr %11, i32 0, i32 0
  %39 = load ptr, ptr %38, align 8
  %40 = call noundef zeroext i1 @"_ZN9__gnu_cxx5__ops10_Iter_predIZN12_GLOBAL__N_117GPythonExecutableC1ERKN3ade5GraphERKSt6vectorINS4_6HandleINS4_4NodeEEESaISB_EEE3$_0EclINS_17__normal_iteratorIPKSB_SD_EEEEbT_"(ptr noundef nonnull align 8 dereferenceable(8) %7, ptr %39)
  br i1 %40, label %41, label %42

41:                                               ; preds = %36
  call void @llvm.memcpy.p0.p0.i64(ptr align 8 %4, ptr align 8 %5, i64 8, i1 false)
  br label %78

42:                                               ; preds = %36
  %43 = call noundef nonnull align 8 dereferenceable(8) ptr @_ZN9__gnu_cxx17__normal_iteratorIPKN3ade6HandleINS1_4NodeEEESt6vectorIS4_SaIS4_EEEppEv(ptr noundef nonnull align 8 dereferenceable(8) %5) #3
  call void @llvm.memcpy.p0.p0.i64(ptr align 8 %12, ptr align 8 %5, i64 8, i1 false)
  %44 = getelementptr inbounds %"class.__gnu_cxx::__normal_iterator", ptr %12, i32 0, i32 0
  %45 = load ptr, ptr %44, align 8
  %46 = call noundef zeroext i1 @"_ZN9__gnu_cxx5__ops10_Iter_predIZN12_GLOBAL__N_117GPythonExecutableC1ERKN3ade5GraphERKSt6vectorINS4_6HandleINS4_4NodeEEESaISB_EEE3$_0EclINS_17__normal_iteratorIPKSB_SD_EEEEbT_"(ptr noundef nonnull align 8 dereferenceable(8) %7, ptr %45)
  br i1 %46, label %47, label %48

47:                                               ; preds = %42
  call void @llvm.memcpy.p0.p0.i64(ptr align 8 %4, ptr align 8 %5, i64 8, i1 false)
  br label %78

48:                                               ; preds = %42
  %49 = call noundef nonnull align 8 dereferenceable(8) ptr @_ZN9__gnu_cxx17__normal_iteratorIPKN3ade6HandleINS1_4NodeEEESt6vectorIS4_SaIS4_EEEppEv(ptr noundef nonnull align 8 dereferenceable(8) %5) #3
  br label %50

50:                                               ; preds = %48
  %51 = load i64, ptr %8, align 8
  %52 = add nsw i64 %51, -1
  store i64 %52, ptr %8, align 8
  br label %22, !llvm.loop !27

53:                                               ; preds = %22
  %54 = call noundef i64 @_ZN9__gnu_cxxmiIPKN3ade6HandleINS1_4NodeEEESt6vectorIS4_SaIS4_EEEENS_17__normal_iteratorIT_T0_E15difference_typeERKSD_SG_(ptr noundef nonnull align 8 dereferenceable(8) %6, ptr noundef nonnull align 8 dereferenceable(8) %5) #3
  switch i64 %54, label %77 [
    i64 3, label %55
    i64 2, label %62
    i64 1, label %69
    i64 0, label %76
  ]

55:                                               ; preds = %53
  call void @llvm.memcpy.p0.p0.i64(ptr align 8 %13, ptr align 8 %5, i64 8, i1 false)
  %56 = getelementptr inbounds %"class.__gnu_cxx::__normal_iterator", ptr %13, i32 0, i32 0
  %57 = load ptr, ptr %56, align 8
  %58 = call noundef zeroext i1 @"_ZN9__gnu_cxx5__ops10_Iter_predIZN12_GLOBAL__N_117GPythonExecutableC1ERKN3ade5GraphERKSt6vectorINS4_6HandleINS4_4NodeEEESaISB_EEE3$_0EclINS_17__normal_iteratorIPKSB_SD_EEEEbT_"(ptr noundef nonnull align 8 dereferenceable(8) %7, ptr %57)
  br i1 %58, label %59, label %60

59:                                               ; preds = %55
  call void @llvm.memcpy.p0.p0.i64(ptr align 8 %4, ptr align 8 %5, i64 8, i1 false)
  br label %78

60:                                               ; preds = %55
  %61 = call noundef nonnull align 8 dereferenceable(8) ptr @_ZN9__gnu_cxx17__normal_iteratorIPKN3ade6HandleINS1_4NodeEEESt6vectorIS4_SaIS4_EEEppEv(ptr noundef nonnull align 8 dereferenceable(8) %5) #3
  br label %62

62:                                               ; preds = %60, %53
  call void @llvm.memcpy.p0.p0.i64(ptr align 8 %14, ptr align 8 %5, i64 8, i1 false)
  %63 = getelementptr inbounds %"class.__gnu_cxx::__normal_iterator", ptr %14, i32 0, i32 0
  %64 = load ptr, ptr %63, align 8
  %65 = call noundef zeroext i1 @"_ZN9__gnu_cxx5__ops10_Iter_predIZN12_GLOBAL__N_117GPythonExecutableC1ERKN3ade5GraphERKSt6vectorINS4_6HandleINS4_4NodeEEESaISB_EEE3$_0EclINS_17__normal_iteratorIPKSB_SD_EEEEbT_"(ptr noundef nonnull align 8 dereferenceable(8) %7, ptr %64)
  br i1 %65, label %66, label %67

66:                                               ; preds = %62
  call void @llvm.memcpy.p0.p0.i64(ptr align 8 %4, ptr align 8 %5, i64 8, i1 false)
  br label %78

67:                                               ; preds = %62
  %68 = call noundef nonnull align 8 dereferenceable(8) ptr @_ZN9__gnu_cxx17__normal_iteratorIPKN3ade6HandleINS1_4NodeEEESt6vectorIS4_SaIS4_EEEppEv(ptr noundef nonnull align 8 dereferenceable(8) %5) #3
  br label %69

69:                                               ; preds = %67, %53
  call void @llvm.memcpy.p0.p0.i64(ptr align 8 %15, ptr align 8 %5, i64 8, i1 false)
  %70 = getelementptr inbounds %"class.__gnu_cxx::__normal_iterator", ptr %15, i32 0, i32 0
  %71 = load ptr, ptr %70, align 8
  %72 = call noundef zeroext i1 @"_ZN9__gnu_cxx5__ops10_Iter_predIZN12_GLOBAL__N_117GPythonExecutableC1ERKN3ade5GraphERKSt6vectorINS4_6HandleINS4_4NodeEEESaISB_EEE3$_0EclINS_17__normal_iteratorIPKSB_SD_EEEEbT_"(ptr noundef nonnull align 8 dereferenceable(8) %7, ptr %71)
  br i1 %72, label %73, label %74

73:                                               ; preds = %69
  call void @llvm.memcpy.p0.p0.i64(ptr align 8 %4, ptr align 8 %5, i64 8, i1 false)
  br label %78

74:                                               ; preds = %69
  %75 = call noundef nonnull align 8 dereferenceable(8) ptr @_ZN9__gnu_cxx17__normal_iteratorIPKN3ade6HandleINS1_4NodeEEESt6vectorIS4_SaIS4_EEEppEv(ptr noundef nonnull align 8 dereferenceable(8) %5) #3
  br label %76

76:                                               ; preds = %74, %53
  br label %77

77:                                               ; preds = %76, %53
  call void @llvm.memcpy.p0.p0.i64(ptr align 8 %4, ptr align 8 %6, i64 8, i1 false)
  br label %78

78:                                               ; preds = %77, %73, %66, %59, %47, %41, %35, %29
  %79 = getelementptr inbounds %"class.__gnu_cxx::__normal_iterator", ptr %4, i32 0, i32 0
  %80 = load ptr, ptr %79, align 8
  ret ptr %80
}

; Function Attrs: mustprogress nounwind uwtable
define linkonce_odr hidden void @_ZSt19__iterator_categoryIN9__gnu_cxx17__normal_iteratorIPKN3ade6HandleINS2_4NodeEEESt6vectorIS5_SaIS5_EEEEENSt15iterator_traitsIT_E17iterator_categoryERKSD_(ptr noundef nonnull align 8 dereferenceable(8) %0) #5 comdat {
  %2 = alloca ptr, align 8
  store ptr %0, ptr %2, align 8
  ret void
}

; Function Attrs: mustprogress nounwind uwtable
define internal void @"_ZN9__gnu_cxx5__ops10_Iter_predIZN12_GLOBAL__N_117GPythonExecutableC1ERKN3ade5GraphERKSt6vectorINS4_6HandleINS4_4NodeEEESaISB_EEE3$_0EC2ESG_"(ptr noundef nonnull align 8 dereferenceable(8) %0, ptr %1) unnamed_addr #5 align 2 {
  %3 = alloca %class.anon.310, align 8
  %4 = alloca ptr, align 8
  %5 = getelementptr inbounds %class.anon.310, ptr %3, i32 0, i32 0
  store ptr %1, ptr %5, align 8
  store ptr %0, ptr %4, align 8
  %6 = load ptr, ptr %4, align 8
  %7 = getelementptr inbounds %"struct.__gnu_cxx::__ops::_Iter_pred.472", ptr %6, i32 0, i32 0
  call void @llvm.memcpy.p0.p0.i64(ptr align 8 %7, ptr align 8 %3, i64 8, i1 false)
  ret void
}

; Function Attrs: mustprogress uwtable
define internal ptr @"_ZSt9__find_ifIN9__gnu_cxx17__normal_iteratorIPKN3ade6HandleINS2_4NodeEEESt6vectorIS5_SaIS5_EEEENS0_5__ops10_Iter_predIZN12_GLOBAL__N_117GPythonExecutableC1ERKNS2_5GraphERKSA_E3$_0EEET_SN_SN_T0_"(ptr %0, ptr %1, ptr %2) #4 {
  %4 = alloca %"class.__gnu_cxx::__normal_iterator", align 8
  %5 = alloca %"class.__gnu_cxx::__normal_iterator", align 8
  %6 = alloca %"class.__gnu_cxx::__normal_iterator", align 8
  %7 = alloca %"struct.__gnu_cxx::__ops::_Iter_pred.472", align 8
  %8 = alloca %"class.__gnu_cxx::__normal_iterator", align 8
  %9 = alloca %"class.__gnu_cxx::__normal_iterator", align 8
  %10 = alloca %"struct.__gnu_cxx::__ops::_Iter_pred.472", align 8
  %11 = getelementptr inbounds %"class.__gnu_cxx::__normal_iterator", ptr %5, i32 0, i32 0
  store ptr %0, ptr %11, align 8
  %12 = getelementptr inbounds %"class.__gnu_cxx::__normal_iterator", ptr %6, i32 0, i32 0
  store ptr %1, ptr %12, align 8
  %13 = getelementptr inbounds %"struct.__gnu_cxx::__ops::_Iter_pred.472", ptr %7, i32 0, i32 0
  %14 = getelementptr inbounds %class.anon.310, ptr %13, i32 0, i32 0
  store ptr %2, ptr %14, align 8
  call void @llvm.memcpy.p0.p0.i64(ptr align 8 %8, ptr align 8 %5, i64 8, i1 false)
  call void @llvm.memcpy.p0.p0.i64(ptr align 8 %9, ptr align 8 %6, i64 8, i1 false)
  call void @llvm.memcpy.p0.p0.i64(ptr align 8 %10, ptr align 8 %7, i64 8, i1 false)
  call void @_ZSt19__iterator_categoryIN9__gnu_cxx17__normal_iteratorIPKN3ade6HandleINS2_4NodeEEESt6vectorIS5_SaIS5_EEEEENSt15iterator_traitsIT_E17iterator_categoryERKSD_(ptr noundef nonnull align 8 dereferenceable(8) %5)
  %15 = getelementptr inbounds %"class.__gnu_cxx::__normal_iterator", ptr %8, i32 0, i32 0
  %16 = load ptr, ptr %15, align 8
  %17 = getelementptr inbounds %"class.__gnu_cxx::__normal_iterator", ptr %9, i32 0, i32 0
  %18 = load ptr, ptr %17, align 8
  %19 = getelementptr inbounds %"struct.__gnu_cxx::__ops::_Iter_pred.472", ptr %10, i32 0, i32 0
  %20 = getelementptr inbounds %class.anon.310, ptr %19, i32 0, i32 0
  %21 = load ptr, ptr %20, align 8
  %22 = call ptr @"_ZSt9__find_ifIN9__gnu_cxx17__normal_iteratorIPKN3ade6HandleINS2_4NodeEEESt6vectorIS5_SaIS5_EEEENS0_5__ops10_Iter_predIZN12_GLOBAL__N_117GPythonExecutableC1ERKNS2_5GraphERKSA_E3$_0EEET_SN_SN_T0_St26random_access_iterator_tag"(ptr %16, ptr %18, ptr %21)
  %23 = getelementptr inbounds %"class.__gnu_cxx::__normal_iterator", ptr %4, i32 0, i32 0
  store ptr %22, ptr %23, align 8
  %24 = getelementptr inbounds %"class.__gnu_cxx::__normal_iterator", ptr %4, i32 0, i32 0
  %25 = load ptr, ptr %24, align 8
  ret ptr %25
}

; Function Attrs: mustprogress uwtable
define internal ptr @"_ZN9__gnu_cxx5__ops11__pred_iterIZN12_GLOBAL__N_117GPythonExecutableC1ERKN3ade5GraphERKSt6vectorINS4_6HandleINS4_4NodeEEESaISB_EEE3$_0EENS0_10_Iter_predIT_EESI_"(ptr %0) #4 {
  %2 = alloca %"struct.__gnu_cxx::__ops::_Iter_pred.472", align 8
  %3 = alloca %class.anon.310, align 8
  %4 = alloca %class.anon.310, align 8
  %5 = getelementptr inbounds %class.anon.310, ptr %3, i32 0, i32 0
  store ptr %0, ptr %5, align 8
  call void @llvm.memcpy.p0.p0.i64(ptr align 8 %4, ptr align 8 %3, i64 8, i1 false)
  %6 = getelementptr inbounds %class.anon.310, ptr %4, i32 0, i32 0
  %7 = load ptr, ptr %6, align 8
  call void @"_ZN9__gnu_cxx5__ops10_Iter_predIZN12_GLOBAL__N_117GPythonExecutableC1ERKN3ade5GraphERKSt6vectorINS4_6HandleINS4_4NodeEEESaISB_EEE3$_0EC2ESG_"(ptr noundef nonnull align 8 dereferenceable(8) %2, ptr %7)
  %8 = getelementptr inbounds %"struct.__gnu_cxx::__ops::_Iter_pred.472", ptr %2, i32 0, i32 0
  %9 = getelementptr inbounds %class.anon.310, ptr %8, i32 0, i32 0
  %10 = load ptr, ptr %9, align 8
  ret ptr %10
}

; Function Attrs: mustprogress uwtable
define internal ptr @"_ZSt7find_ifIN9__gnu_cxx17__normal_iteratorIPKN3ade6HandleINS2_4NodeEEESt6vectorIS5_SaIS5_EEEEZN12_GLOBAL__N_117GPythonExecutableC1ERKNS2_5GraphERKSA_E3$_0ET_SK_SK_T0_"(ptr %0, ptr %1, ptr %2) #4 {
  %4 = alloca %"class.__gnu_cxx::__normal_iterator", align 8
  %5 = alloca %"class.__gnu_cxx::__normal_iterator", align 8
  %6 = alloca %"class.__gnu_cxx::__normal_iterator", align 8
  %7 = alloca %class.anon.310, align 8
  %8 = alloca %"class.__gnu_cxx::__normal_iterator", align 8
  %9 = alloca %"class.__gnu_cxx::__normal_iterator", align 8
  %10 = alloca %"struct.__gnu_cxx::__ops::_Iter_pred.472", align 8
  %11 = alloca %class.anon.310, align 8
  %12 = getelementptr inbounds %"class.__gnu_cxx::__normal_iterator", ptr %5, i32 0, i32 0
  store ptr %0, ptr %12, align 8
  %13 = getelementptr inbounds %"class.__gnu_cxx::__normal_iterator", ptr %6, i32 0, i32 0
  store ptr %1, ptr %13, align 8
  %14 = getelementptr inbounds %class.anon.310, ptr %7, i32 0, i32 0
  store ptr %2, ptr %14, align 8
  call void @llvm.memcpy.p0.p0.i64(ptr align 8 %8, ptr align 8 %5, i64 8, i1 false)
  call void @llvm.memcpy.p0.p0.i64(ptr align 8 %9, ptr align 8 %6, i64 8, i1 false)
  call void @llvm.memcpy.p0.p0.i64(ptr align 8 %11, ptr align 8 %7, i64 8, i1 false)
  %15 = getelementptr inbounds %class.anon.310, ptr %11, i32 0, i32 0
  %16 = load ptr, ptr %15, align 8
  %17 = call ptr @"_ZN9__gnu_cxx5__ops11__pred_iterIZN12_GLOBAL__N_117GPythonExecutableC1ERKN3ade5GraphERKSt6vectorINS4_6HandleINS4_4NodeEEESaISB_EEE3$_0EENS0_10_Iter_predIT_EESI_"(ptr %16)
  %18 = getelementptr inbounds %"struct.__gnu_cxx::__ops::_Iter_pred.472", ptr %10, i32 0, i32 0
  %19 = getelementptr inbounds %class.anon.310, ptr %18, i32 0, i32 0
  store ptr %17, ptr %19, align 8
  %20 = getelementptr inbounds %"class.__gnu_cxx::__normal_iterator", ptr %8, i32 0, i32 0
  %21 = load ptr, ptr %20, align 8
  %22 = getelementptr inbounds %"class.__gnu_cxx::__normal_iterator", ptr %9, i32 0, i32 0
  %23 = load ptr, ptr %22, align 8
  %24 = getelementptr inbounds %"struct.__gnu_cxx::__ops::_Iter_pred.472", ptr %10, i32 0, i32 0
  %25 = getelementptr inbounds %class.anon.310, ptr %24, i32 0, i32 0
  %26 = load ptr, ptr %25, align 8
  %27 = call ptr @"_ZSt9__find_ifIN9__gnu_cxx17__normal_iteratorIPKN3ade6HandleINS2_4NodeEEESt6vectorIS5_SaIS5_EEEENS0_5__ops10_Iter_predIZN12_GLOBAL__N_117GPythonExecutableC1ERKNS2_5GraphERKSA_E3$_0EEET_SN_SN_T0_"(ptr %21, ptr %23, ptr %26)
  %28 = getelementptr inbounds %"class.__gnu_cxx::__normal_iterator", ptr %4, i32 0, i32 0
  store ptr %27, ptr %28, align 8
  %29 = getelementptr inbounds %"class.__gnu_cxx::__normal_iterator", ptr %4, i32 0, i32 0
  %30 = load ptr, ptr %29, align 8
  ret ptr %30
}