; Function Attrs: mustprogress uwtable
define internal fastcc ptr @"_ZSt7find_ifIN9__gnu_cxx17__normal_iteratorIPKN3ade6HandleINS2_4NodeEEESt6vectorIS5_SaIS5_EEEEZN12_GLOBAL__N_117GPythonExecutableC1ERKNS2_5GraphERKSA_E3$_0ET_SK_SK_T0_"(ptr %0, ptr %1, ptr nocapture readonly %2) unnamed_addr #3 {
  %4 = ptrtoint ptr %1 to i64
  %5 = ptrtoint ptr %0 to i64
  %6 = sub i64 %4, %5
  %7 = ashr i64 %6, 6
  %8 = icmp sgt i64 %7, 0
  br i1 %8, label %.lr.ph.i.i, label %._crit_edge.i.i

.lr.ph.i.i:                                       ; preds = %3, %19
  %.043.i.i = phi i64 [ %21, %19 ], [ %7, %3 ]
  %.sroa.032.042.i.i = phi ptr [ %20, %19 ], [ %0, %3 ]
  %9 = tail call fastcc noundef zeroext i1 @"_ZN9__gnu_cxx5__ops10_Iter_predIZN12_GLOBAL__N_117GPythonExecutableC1ERKN3ade5GraphERKSt6vectorINS4_6HandleINS4_4NodeEEESaISB_EEE3$_0EclINS_17__normal_iteratorIPKSB_SD_EEEEbT_"(ptr readonly %2, ptr %.sroa.032.042.i.i)
  br i1 %9, label %"_ZSt9__find_ifIN9__gnu_cxx17__normal_iteratorIPKN3ade6HandleINS2_4NodeEEESt6vectorIS5_SaIS5_EEEENS0_5__ops10_Iter_predIZN12_GLOBAL__N_117GPythonExecutableC1ERKNS2_5GraphERKSA_E3$_0EEET_SN_SN_T0_.exit", label %10

10:                                               ; preds = %.lr.ph.i.i
  %11 = getelementptr inbounds i8, ptr %.sroa.032.042.i.i, i64 16
  %12 = tail call fastcc noundef zeroext i1 @"_ZN9__gnu_cxx5__ops10_Iter_predIZN12_GLOBAL__N_117GPythonExecutableC1ERKN3ade5GraphERKSt6vectorINS4_6HandleINS4_4NodeEEESaISB_EEE3$_0EclINS_17__normal_iteratorIPKSB_SD_EEEEbT_"(ptr readonly %2, ptr nonnull %11)
  br i1 %12, label %"_ZSt9__find_ifIN9__gnu_cxx17__normal_iteratorIPKN3ade6HandleINS2_4NodeEEESt6vectorIS5_SaIS5_EEEENS0_5__ops10_Iter_predIZN12_GLOBAL__N_117GPythonExecutableC1ERKNS2_5GraphERKSA_E3$_0EEET_SN_SN_T0_.exit", label %13

13:                                               ; preds = %10
  %14 = getelementptr inbounds i8, ptr %.sroa.032.042.i.i, i64 32
  %15 = tail call fastcc noundef zeroext i1 @"_ZN9__gnu_cxx5__ops10_Iter_predIZN12_GLOBAL__N_117GPythonExecutableC1ERKN3ade5GraphERKSt6vectorINS4_6HandleINS4_4NodeEEESaISB_EEE3$_0EclINS_17__normal_iteratorIPKSB_SD_EEEEbT_"(ptr readonly %2, ptr nonnull %14)
  br i1 %15, label %"_ZSt9__find_ifIN9__gnu_cxx17__normal_iteratorIPKN3ade6HandleINS2_4NodeEEESt6vectorIS5_SaIS5_EEEENS0_5__ops10_Iter_predIZN12_GLOBAL__N_117GPythonExecutableC1ERKNS2_5GraphERKSA_E3$_0EEET_SN_SN_T0_.exit", label %16

16:                                               ; preds = %13
  %17 = getelementptr inbounds i8, ptr %.sroa.032.042.i.i, i64 48
  %18 = tail call fastcc noundef zeroext i1 @"_ZN9__gnu_cxx5__ops10_Iter_predIZN12_GLOBAL__N_117GPythonExecutableC1ERKN3ade5GraphERKSt6vectorINS4_6HandleINS4_4NodeEEESaISB_EEE3$_0EclINS_17__normal_iteratorIPKSB_SD_EEEEbT_"(ptr readonly %2, ptr nonnull %17)
  br i1 %18, label %"_ZSt9__find_ifIN9__gnu_cxx17__normal_iteratorIPKN3ade6HandleINS2_4NodeEEESt6vectorIS5_SaIS5_EEEENS0_5__ops10_Iter_predIZN12_GLOBAL__N_117GPythonExecutableC1ERKNS2_5GraphERKSA_E3$_0EEET_SN_SN_T0_.exit", label %19

19:                                               ; preds = %16
  %20 = getelementptr inbounds i8, ptr %.sroa.032.042.i.i, i64 64
  %21 = add nsw i64 %.043.i.i, -1
  %22 = icmp sgt i64 %.043.i.i, 1
  br i1 %22, label %.lr.ph.i.i, label %._crit_edge.loopexit.i.i, !llvm.loop !80

._crit_edge.loopexit.i.i:                         ; preds = %19
  %.pre.i.i = ptrtoint ptr %20 to i64
  %.pre44.i.i = sub i64 %4, %.pre.i.i
  br label %._crit_edge.i.i

._crit_edge.i.i:                                  ; preds = %._crit_edge.loopexit.i.i, %3
  %.pre-phi45.i.i = phi i64 [ %.pre44.i.i, %._crit_edge.loopexit.i.i ], [ %6, %3 ]
  %.sroa.032.0.lcssa.i.i = phi ptr [ %20, %._crit_edge.loopexit.i.i ], [ %0, %3 ]
  %23 = ashr exact i64 %.pre-phi45.i.i, 4
  switch i64 %23, label %"_ZSt9__find_ifIN9__gnu_cxx17__normal_iteratorIPKN3ade6HandleINS2_4NodeEEESt6vectorIS5_SaIS5_EEEENS0_5__ops10_Iter_predIZN12_GLOBAL__N_117GPythonExecutableC1ERKNS2_5GraphERKSA_E3$_0EEET_SN_SN_T0_.exit" [
    i64 3, label %24
    i64 2, label %28
    i64 1, label %32
  ]

24:                                               ; preds = %._crit_edge.i.i
  %25 = tail call fastcc noundef zeroext i1 @"_ZN9__gnu_cxx5__ops10_Iter_predIZN12_GLOBAL__N_117GPythonExecutableC1ERKN3ade5GraphERKSt6vectorINS4_6HandleINS4_4NodeEEESaISB_EEE3$_0EclINS_17__normal_iteratorIPKSB_SD_EEEEbT_"(ptr readonly %2, ptr %.sroa.032.0.lcssa.i.i)
  br i1 %25, label %"_ZSt9__find_ifIN9__gnu_cxx17__normal_iteratorIPKN3ade6HandleINS2_4NodeEEESt6vectorIS5_SaIS5_EEEENS0_5__ops10_Iter_predIZN12_GLOBAL__N_117GPythonExecutableC1ERKNS2_5GraphERKSA_E3$_0EEET_SN_SN_T0_.exit", label %26

26:                                               ; preds = %24
  %27 = getelementptr inbounds i8, ptr %.sroa.032.0.lcssa.i.i, i64 16
  br label %28

28:                                               ; preds = %26, %._crit_edge.i.i
  %.sroa.032.1.i.i = phi ptr [ %.sroa.032.0.lcssa.i.i, %._crit_edge.i.i ], [ %27, %26 ]
  %29 = tail call fastcc noundef zeroext i1 @"_ZN9__gnu_cxx5__ops10_Iter_predIZN12_GLOBAL__N_117GPythonExecutableC1ERKN3ade5GraphERKSt6vectorINS4_6HandleINS4_4NodeEEESaISB_EEE3$_0EclINS_17__normal_iteratorIPKSB_SD_EEEEbT_"(ptr readonly %2, ptr %.sroa.032.1.i.i)
  br i1 %29, label %"_ZSt9__find_ifIN9__gnu_cxx17__normal_iteratorIPKN3ade6HandleINS2_4NodeEEESt6vectorIS5_SaIS5_EEEENS0_5__ops10_Iter_predIZN12_GLOBAL__N_117GPythonExecutableC1ERKNS2_5GraphERKSA_E3$_0EEET_SN_SN_T0_.exit", label %30

30:                                               ; preds = %28
  %31 = getelementptr inbounds i8, ptr %.sroa.032.1.i.i, i64 16
  br label %32

32:                                               ; preds = %30, %._crit_edge.i.i
  %.sroa.032.2.i.i = phi ptr [ %.sroa.032.0.lcssa.i.i, %._crit_edge.i.i ], [ %31, %30 ]
  %33 = tail call fastcc noundef zeroext i1 @"_ZN9__gnu_cxx5__ops10_Iter_predIZN12_GLOBAL__N_117GPythonExecutableC1ERKN3ade5GraphERKSt6vectorINS4_6HandleINS4_4NodeEEESaISB_EEE3$_0EclINS_17__normal_iteratorIPKSB_SD_EEEEbT_"(ptr readonly %2, ptr %.sroa.032.2.i.i)
  %spec.select.i.i = select i1 %33, ptr %.sroa.032.2.i.i, ptr %1
  br label %"_ZSt9__find_ifIN9__gnu_cxx17__normal_iteratorIPKN3ade6HandleINS2_4NodeEEESt6vectorIS5_SaIS5_EEEENS0_5__ops10_Iter_predIZN12_GLOBAL__N_117GPythonExecutableC1ERKNS2_5GraphERKSA_E3$_0EEET_SN_SN_T0_.exit"

"_ZSt9__find_ifIN9__gnu_cxx17__normal_iteratorIPKN3ade6HandleINS2_4NodeEEESt6vectorIS5_SaIS5_EEEENS0_5__ops10_Iter_predIZN12_GLOBAL__N_117GPythonExecutableC1ERKNS2_5GraphERKSA_E3$_0EEET_SN_SN_T0_.exit": ; preds = %.lr.ph.i.i, %10, %13, %16, %._crit_edge.i.i, %24, %28, %32
  %.sroa.08.0.in.sroa.speculated.i.i = phi ptr [ %.sroa.032.0.lcssa.i.i, %24 ], [ %.sroa.032.1.i.i, %28 ], [ %1, %._crit_edge.i.i ], [ %spec.select.i.i, %32 ], [ %17, %16 ], [ %14, %13 ], [ %11, %10 ], [ %.sroa.032.042.i.i, %.lr.ph.i.i ]
  ret ptr %.sroa.08.0.in.sroa.speculated.i.i
}